; ModuleID = '50/1707.c'
source_filename = "50/1707.c"
target datalayout = "e-m:e-p270:32:32-p271:32:32-p272:64:64-i64:64-f80:128-n8:16:32:64-S128"
target triple = "x86_64-pc-linux-gnu"

@.str = private unnamed_addr constant [3 x i8] c"%d\00", align 1
@.str.1 = private unnamed_addr constant [4 x i8] c"%d\0A\00", align 1

; Function Attrs: noinline nounwind uwtable
define dso_local i32 @main() #0 {
  %1 = alloca i32, align 4
  %2 = alloca i32, align 4
  %3 = alloca i32, align 4
  %4 = alloca i32, align 4
  %5 = alloca i32, align 4
  store i32 0, i32* %1, align 4
  %6 = call i32 (i8*, ...) @__isoc99_scanf(i8* getelementptr inbounds ([3 x i8], [3 x i8]* @.str, i64 0, i64 0), i32* %2)
  %7 = load i32, i32* %2, align 4
  %8 = icmp sge i32 %7, 1
  br i1 %8, label %9, label %15

9:                                                ; preds = %0
  %10 = load i32, i32* %2, align 4
  %11 = icmp sle i32 %10, 5
  br i1 %11, label %12, label %15

12:                                               ; preds = %9
  %13 = load i32, i32* %2, align 4
  %14 = sub nsw i32 5, %13
  store i32 %14, i32* %4, align 4
  br label %18

15:                                               ; preds = %9, %0
  %16 = load i32, i32* %2, align 4
  %17 = sub nsw i32 12, %16
  store i32 %17, i32* %4, align 4
  br label %18

18:                                               ; preds = %15, %12
  store i32 12, i32* %5, align 4
  store i32 1, i32* %3, align 4
  br label %19

19:                                               ; preds = %62, %18
  %20 = load i32, i32* %3, align 4
  %21 = icmp sle i32 %20, 12
  br i1 %21, label %22, label %65

22:                                               ; preds = %19
  %23 = load i32, i32* %3, align 4
  %24 = icmp eq i32 %23, 3
  br i1 %24, label %25, label %28

25:                                               ; preds = %22
  %26 = load i32, i32* %5, align 4
  %27 = add nsw i32 %26, 28
  store i32 %27, i32* %5, align 4
  br label %53

28:                                               ; preds = %22
  %29 = load i32, i32* %3, align 4
  %30 = icmp eq i32 %29, 5
  br i1 %30, label %40, label %31

31:                                               ; preds = %28
  %32 = load i32, i32* %3, align 4
  %33 = icmp eq i32 %32, 7
  br i1 %33, label %40, label %34

34:                                               ; preds = %31
  %35 = load i32, i32* %3, align 4
  %36 = icmp eq i32 %35, 10
  br i1 %36, label %40, label %37

37:                                               ; preds = %34
  %38 = load i32, i32* %3, align 4
  %39 = icmp eq i32 %38, 12
  br i1 %39, label %40, label %43

40:                                               ; preds = %37, %34, %31, %28
  %41 = load i32, i32* %5, align 4
  %42 = add nsw i32 %41, 30
  store i32 %42, i32* %5, align 4
  br label %52

43:                                               ; preds = %37
  %44 = load i32, i32* %3, align 4
  %45 = icmp eq i32 %44, 1
  br i1 %45, label %46, label %48

46:                                               ; preds = %43
  %47 = load i32, i32* %5, align 4
  store i32 %47, i32* %5, align 4
  br label %51

48:                                               ; preds = %43
  %49 = load i32, i32* %5, align 4
  %50 = add nsw i32 %49, 31
  store i32 %50, i32* %5, align 4
  br label %51

51:                                               ; preds = %48, %46
  br label %52

52:                                               ; preds = %51, %40
  br label %53

53:                                               ; preds = %52, %25
  %54 = load i32, i32* %5, align 4
  %55 = srem i32 %54, 7
  %56 = load i32, i32* %4, align 4
  %57 = icmp eq i32 %55, %56
  br i1 %57, label %58, label %61

58:                                               ; preds = %53
  %59 = load i32, i32* %3, align 4
  %60 = call i32 (i8*, ...) @printf(i8* getelementptr inbounds ([4 x i8], [4 x i8]* @.str.1, i64 0, i64 0), i32 %59)
  br label %61

61:                                               ; preds = %58, %53
  br label %62

62:                                               ; preds = %61
  %63 = load i32, i32* %3, align 4
  %64 = add nsw i32 %63, 1
  store i32 %64, i32* %3, align 4
  br label %19

65:                                               ; preds = %19
  ret i32 0
}

declare dso_local i32 @__isoc99_scanf(i8*, ...) #1

declare dso_local i32 @printf(i8*, ...) #1


!llvm.module.flags = !{!0}
!llvm.ident = !{!1}

!0 = !{i32 1, !"wchar_size", i32 4}
!1 = !{!"clang version 10.0.0-4ubuntu1 "}
